; Function Attrs: nofree null_pointer_is_valid sspstrong uwtable
define internal void @lpp_confidence_fmt(ptr noundef %0, i32 noundef %1) #3 {
  %3 = icmp eq i32 %1, 0
  br i1 %3, label %4, label %6

4:                                                ; preds = %2
  %5 = tail call i32 (ptr, i64, i32, i64, ptr, ...) @__snprintf_chk(ptr noundef %0, i64 noundef 240, i32 noundef 2, i64 noundef -1, ptr noundef nonnull @.str.7013)
  br label %8

6:                                                ; preds = %2
  %7 = tail call i32 (ptr, i64, i32, i64, ptr, ...) @__snprintf_chk(ptr noundef %0, i64 noundef 240, i32 noundef 2, i64 noundef -1, ptr noundef nonnull @.str.7014, i32 noundef %1)
  br label %8

8:                                                ; preds = %6, %4
  ret void
}